; ModuleID = '46/3257.c'
source_filename = "46/3257.c"
target datalayout = "e-m:e-p270:32:32-p271:32:32-p272:64:64-i64:64-f80:128-n8:16:32:64-S128"
target triple = "x86_64-pc-linux-gnu"

@.str = private unnamed_addr constant [5 x i8] c"%d%d\00", align 1
@.str.1 = private unnamed_addr constant [3 x i8] c"%d\00", align 1
@.str.2 = private unnamed_addr constant [4 x i8] c"%d\0A\00", align 1

; Function Attrs: noinline nounwind uwtable
define dso_local i32 @main() #0 {
  %1 = alloca i32, align 4
  %2 = alloca i32, align 4
  %3 = alloca i32, align 4
  %4 = alloca i32, align 4
  %5 = alloca i32, align 4
  %6 = alloca i32, align 4
  %7 = alloca i32, align 4
  %8 = alloca [100 x [100 x i32]], align 16
  %9 = alloca i32, align 4
  %10 = alloca i32, align 4
  store i32 0, i32* %1, align 4
  store i32 0, i32* %7, align 4
  store i32 0, i32* %9, align 4
  %11 = call i32 (i8*, ...) @__isoc99_scanf(i8* getelementptr inbounds ([5 x i8], [5 x i8]* @.str, i64 0, i64 0), i32* %4, i32* %5)
  store i32 0, i32* %6, align 4
  br label %12

12:                                               ; preds = %33, %0
  %13 = load i32, i32* %6, align 4
  %14 = load i32, i32* %4, align 4
  %15 = icmp slt i32 %13, %14
  br i1 %15, label %16, label %36

16:                                               ; preds = %12
  store i32 0, i32* %7, align 4
  br label %17

17:                                               ; preds = %29, %16
  %18 = load i32, i32* %7, align 4
  %19 = load i32, i32* %5, align 4
  %20 = icmp slt i32 %18, %19
  br i1 %20, label %21, label %32

21:                                               ; preds = %17
  %22 = load i32, i32* %6, align 4
  %23 = sext i32 %22 to i64
  %24 = getelementptr inbounds [100 x [100 x i32]], [100 x [100 x i32]]* %8, i64 0, i64 %23
  %25 = load i32, i32* %7, align 4
  %26 = sext i32 %25 to i64
  %27 = getelementptr inbounds [100 x i32], [100 x i32]* %24, i64 0, i64 %26
  %28 = call i32 (i8*, ...) @__isoc99_scanf(i8* getelementptr inbounds ([3 x i8], [3 x i8]* @.str.1, i64 0, i64 0), i32* %27)
  br label %29

29:                                               ; preds = %21
  %30 = load i32, i32* %7, align 4
  %31 = add nsw i32 %30, 1
  store i32 %31, i32* %7, align 4
  br label %17

32:                                               ; preds = %17
  br label %33

33:                                               ; preds = %32
  %34 = load i32, i32* %6, align 4
  %35 = add nsw i32 %34, 1
  store i32 %35, i32* %6, align 4
  br label %12

36:                                               ; preds = %12
  %37 = load i32, i32* %4, align 4
  store i32 %37, i32* %2, align 4
  %38 = load i32, i32* %5, align 4
  store i32 %38, i32* %3, align 4
  %39 = load i32, i32* %4, align 4
  %40 = load i32, i32* %5, align 4
  %41 = mul nsw i32 %39, %40
  store i32 %41, i32* %10, align 4
  br label %42

42:                                               ; preds = %168, %36
  %43 = load i32, i32* %2, align 4
  %44 = load i32, i32* %4, align 4
  %45 = sub nsw i32 %43, %44
  store i32 %45, i32* %6, align 4
  %46 = load i32, i32* %3, align 4
  %47 = load i32, i32* %5, align 4
  %48 = sub nsw i32 %46, %47
  store i32 %48, i32* %7, align 4
  br label %49

49:                                               ; preds = %64, %42
  %50 = load i32, i32* %7, align 4
  %51 = load i32, i32* %5, align 4
  %52 = icmp slt i32 %50, %51
  br i1 %52, label %53, label %67

53:                                               ; preds = %49
  %54 = load i32, i32* %6, align 4
  %55 = sext i32 %54 to i64
  %56 = getelementptr inbounds [100 x [100 x i32]], [100 x [100 x i32]]* %8, i64 0, i64 %55
  %57 = load i32, i32* %7, align 4
  %58 = sext i32 %57 to i64
  %59 = getelementptr inbounds [100 x i32], [100 x i32]* %56, i64 0, i64 %58
  %60 = load i32, i32* %59, align 4
  %61 = call i32 (i8*, ...) @printf(i8* getelementptr inbounds ([4 x i8], [4 x i8]* @.str.2, i64 0, i64 0), i32 %60)
  %62 = load i32, i32* %9, align 4
  %63 = add nsw i32 %62, 1
  store i32 %63, i32* %9, align 4
  br label %64

64:                                               ; preds = %53
  %65 = load i32, i32* %7, align 4
  %66 = add nsw i32 %65, 1
  store i32 %66, i32* %7, align 4
  br label %49

67:                                               ; preds = %49
  %68 = load i32, i32* %4, align 4
  %69 = sub nsw i32 %68, 1
  store i32 %69, i32* %4, align 4
  %70 = load i32, i32* %7, align 4
  %71 = sub nsw i32 %70, 1
  store i32 %71, i32* %7, align 4
  %72 = load i32, i32* %9, align 4
  %73 = load i32, i32* %10, align 4
  %74 = icmp eq i32 %72, %73
  br i1 %74, label %75, label %76

75:                                               ; preds = %67
  br label %169

76:                                               ; preds = %67
  %77 = load i32, i32* %2, align 4
  %78 = load i32, i32* %4, align 4
  %79 = sub nsw i32 %77, %78
  store i32 %79, i32* %6, align 4
  br label %80

80:                                               ; preds = %95, %76
  %81 = load i32, i32* %6, align 4
  %82 = load i32, i32* %4, align 4
  %83 = icmp sle i32 %81, %82
  br i1 %83, label %84, label %98

84:                                               ; preds = %80
  %85 = load i32, i32* %6, align 4
  %86 = sext i32 %85 to i64
  %87 = getelementptr inbounds [100 x [100 x i32]], [100 x [100 x i32]]* %8, i64 0, i64 %86
  %88 = load i32, i32* %7, align 4
  %89 = sext i32 %88 to i64
  %90 = getelementptr inbounds [100 x i32], [100 x i32]* %87, i64 0, i64 %89
  %91 = load i32, i32* %90, align 4
  %92 = call i32 (i8*, ...) @printf(i8* getelementptr inbounds ([4 x i8], [4 x i8]* @.str.2, i64 0, i64 0), i32 %91)
  %93 = load i32, i32* %9, align 4
  %94 = add nsw i32 %93, 1
  store i32 %94, i32* %9, align 4
  br label %95

95:                                               ; preds = %84
  %96 = load i32, i32* %6, align 4
  %97 = add nsw i32 %96, 1
  store i32 %97, i32* %6, align 4
  br label %80

98:                                               ; preds = %80
  %99 = load i32, i32* %5, align 4
  %100 = sub nsw i32 %99, 1
  store i32 %100, i32* %5, align 4
  %101 = load i32, i32* %6, align 4
  %102 = sub nsw i32 %101, 1
  store i32 %102, i32* %6, align 4
  %103 = load i32, i32* %9, align 4
  %104 = load i32, i32* %10, align 4
  %105 = icmp eq i32 %103, %104
  br i1 %105, label %106, label %107

106:                                              ; preds = %98
  br label %169

107:                                              ; preds = %98
  %108 = load i32, i32* %5, align 4
  %109 = sub nsw i32 %108, 1
  store i32 %109, i32* %7, align 4
  br label %110

110:                                              ; preds = %128, %107
  %111 = load i32, i32* %7, align 4
  %112 = load i32, i32* %3, align 4
  %113 = load i32, i32* %5, align 4
  %114 = sub nsw i32 %112, %113
  %115 = sub nsw i32 %114, 1
  %116 = icmp sge i32 %111, %115
  br i1 %116, label %117, label %131

117:                                              ; preds = %110
  %118 = load i32, i32* %6, align 4
  %119 = sext i32 %118 to i64
  %120 = getelementptr inbounds [100 x [100 x i32]], [100 x [100 x i32]]* %8, i64 0, i64 %119
  %121 = load i32, i32* %7, align 4
  %122 = sext i32 %121 to i64
  %123 = getelementptr inbounds [100 x i32], [100 x i32]* %120, i64 0, i64 %122
  %124 = load i32, i32* %123, align 4
  %125 = call i32 (i8*, ...) @printf(i8* getelementptr inbounds ([4 x i8], [4 x i8]* @.str.2, i64 0, i64 0), i32 %124)
  %126 = load i32, i32* %9, align 4
  %127 = add nsw i32 %126, 1
  store i32 %127, i32* %9, align 4
  br label %128

128:                                              ; preds = %117
  %129 = load i32, i32* %7, align 4
  %130 = add nsw i32 %129, -1
  store i32 %130, i32* %7, align 4
  br label %110

131:                                              ; preds = %110
  %132 = load i32, i32* %7, align 4
  %133 = add nsw i32 %132, 1
  store i32 %133, i32* %7, align 4
  %134 = load i32, i32* %9, align 4
  %135 = load i32, i32* %10, align 4
  %136 = icmp eq i32 %134, %135
  br i1 %136, label %137, label %138

137:                                              ; preds = %131
  br label %169

138:                                              ; preds = %131
  %139 = load i32, i32* %4, align 4
  %140 = sub nsw i32 %139, 1
  store i32 %140, i32* %6, align 4
  br label %141

141:                                              ; preds = %158, %138
  %142 = load i32, i32* %6, align 4
  %143 = load i32, i32* %2, align 4
  %144 = load i32, i32* %4, align 4
  %145 = sub nsw i32 %143, %144
  %146 = icmp sge i32 %142, %145
  br i1 %146, label %147, label %161

147:                                              ; preds = %141
  %148 = load i32, i32* %6, align 4
  %149 = sext i32 %148 to i64
  %150 = getelementptr inbounds [100 x [100 x i32]], [100 x [100 x i32]]* %8, i64 0, i64 %149
  %151 = load i32, i32* %7, align 4
  %152 = sext i32 %151 to i64
  %153 = getelementptr inbounds [100 x i32], [100 x i32]* %150, i64 0, i64 %152
  %154 = load i32, i32* %153, align 4
  %155 = call i32 (i8*, ...) @printf(i8* getelementptr inbounds ([4 x i8], [4 x i8]* @.str.2, i64 0, i64 0), i32 %154)
  %156 = load i32, i32* %9, align 4
  %157 = add nsw i32 %156, 1
  store i32 %157, i32* %9, align 4
  br label %158

158:                                              ; preds = %147
  %159 = load i32, i32* %6, align 4
  %160 = add nsw i32 %159, -1
  store i32 %160, i32* %6, align 4
  br label %141

161:                                              ; preds = %141
  %162 = load i32, i32* %6, align 4
  %163 = add nsw i32 %162, 1
  store i32 %163, i32* %6, align 4
  %164 = load i32, i32* %9, align 4
  %165 = load i32, i32* %10, align 4
  %166 = icmp eq i32 %164, %165
  br i1 %166, label %167, label %168

167:                                              ; preds = %161
  br label %169

168:                                              ; preds = %161
  br label %42

169:                                              ; preds = %167, %137, %106, %75
  %170 = load i32, i32* %1, align 4
  ret i32 %170
}

declare dso_local i32 @__isoc99_scanf(i8*, ...) #1

declare dso_local i32 @printf(i8*, ...) #1


!llvm.module.flags = !{!0}
!llvm.ident = !{!1}

!0 = !{i32 1, !"wchar_size", i32 4}
!1 = !{!"clang version 10.0.0-4ubuntu1 "}
